target datalayout = "e-m:e-p270:32:32-p271:32:32-p272:64:64-i64:64-i128:128-f80:128-n8:16:32:64-S128"
target triple = "x86_64-pc-linux-gnu"

%struct.PROV_ECDSA_CTX = type { ptr, ptr, ptr, i32, i8, [256 x i8], i64, [50 x i8], ptr, ptr, i64, ptr, i64, ptr, ptr, i32 }

@.str = private unnamed_addr constant [59 x i8] c"../openssl/providers/implementations/signature/ecdsa_sig.c\00", align 1
@__func__.ecdsa_signverify_init = private unnamed_addr constant [22 x i8] c"ecdsa_signverify_init\00", align 1

; Function Attrs: nounwind uwtable
define internal i32 @ecdsa_signverify_init(ptr noundef %0, ptr noundef %1, ptr noundef %2, ptr noundef %3, i32 noundef %4, ptr noundef %5) #0 {
  %7 = alloca i32, align 4
  %8 = alloca ptr, align 8
  %9 = alloca ptr, align 8
  %10 = alloca ptr, align 8
  %11 = alloca ptr, align 8
  %12 = alloca i32, align 4
  %13 = alloca ptr, align 8
  store ptr %0, ptr %8, align 8, !tbaa !3
  store ptr %1, ptr %9, align 8, !tbaa !3
  store ptr %2, ptr %10, align 8, !tbaa !3
  store ptr %3, ptr %11, align 8, !tbaa !19
  store i32 %4, ptr %12, align 4, !tbaa !26
  store ptr %5, ptr %13, align 8, !tbaa !7
  %14 = call i32 @ossl_prov_is_running()
  %15 = icmp ne i32 %14, 0
  br i1 %15, label %16, label %19

16:                                               ; preds = %6
  %17 = load ptr, ptr %8, align 8, !tbaa !3
  %18 = icmp eq ptr %17, null
  br i1 %18, label %19, label %20

19:                                               ; preds = %16, %6
  store i32 0, ptr %7, align 4
  br label %55

20:                                               ; preds = %16
  %21 = load ptr, ptr %9, align 8, !tbaa !3
  %22 = icmp eq ptr %21, null
  br i1 %22, label %23, label %29

23:                                               ; preds = %20
  %24 = load ptr, ptr %8, align 8, !tbaa !3
  %25 = getelementptr inbounds nuw %struct.PROV_ECDSA_CTX, ptr %24, i32 0, i32 2
  %26 = load ptr, ptr %25, align 8, !tbaa !29
  %27 = icmp eq ptr %26, null
  br i1 %27, label %28, label %29

28:                                               ; preds = %23
  call void @ERR_new()
  call void @ERR_set_debug(ptr noundef @.str, i32 noundef 273, ptr noundef @__func__.ecdsa_signverify_init)
  call void (i32, i32, ptr, ...) @ERR_set_error(i32 noundef 57, i32 noundef 114, ptr noundef null)
  store i32 0, ptr %7, align 4
  br label %55

29:                                               ; preds = %23, %20
  %30 = load ptr, ptr %9, align 8, !tbaa !3
  %31 = icmp ne ptr %30, null
  br i1 %31, label %32, label %44

32:                                               ; preds = %29
  %33 = load ptr, ptr %9, align 8, !tbaa !3
  %34 = call i32 @EC_KEY_up_ref(ptr noundef %33)
  %35 = icmp ne i32 %34, 0
  br i1 %35, label %37, label %36

36:                                               ; preds = %32
  store i32 0, ptr %7, align 4
  br label %55

37:                                               ; preds = %32
  %38 = load ptr, ptr %8, align 8, !tbaa !3
  %39 = getelementptr inbounds nuw %struct.PROV_ECDSA_CTX, ptr %38, i32 0, i32 2
  %40 = load ptr, ptr %39, align 8, !tbaa !29
  call void @EC_KEY_free(ptr noundef %40)
  %41 = load ptr, ptr %9, align 8, !tbaa !3
  %42 = load ptr, ptr %8, align 8, !tbaa !3
  %43 = getelementptr inbounds nuw %struct.PROV_ECDSA_CTX, ptr %42, i32 0, i32 2
  store ptr %41, ptr %43, align 8, !tbaa !29
  br label %44

44:                                               ; preds = %37, %29
  %45 = load i32, ptr %12, align 4, !tbaa !26
  %46 = load ptr, ptr %8, align 8, !tbaa !3
  %47 = getelementptr inbounds nuw %struct.PROV_ECDSA_CTX, ptr %46, i32 0, i32 3
  store i32 %45, ptr %47, align 8, !tbaa !24
  %48 = load ptr, ptr %10, align 8, !tbaa !3
  %49 = load ptr, ptr %8, align 8, !tbaa !3
  %50 = load ptr, ptr %11, align 8, !tbaa !19
  %51 = call i32 %48(ptr noundef %49, ptr noundef %50)
  %52 = icmp ne i32 %51, 0
  br i1 %52, label %54, label %53

53:                                               ; preds = %44
  store i32 0, ptr %7, align 4
  br label %55

54:                                               ; preds = %44
  store i32 1, ptr %7, align 4
  br label %55

55:                                               ; preds = %54, %53, %36, %28, %19
  %56 = load i32, ptr %7, align 4
  ret i32 %56
}