; Function Attrs: nounwind uwtable
define internal fastcc range(i32 0, 2) i32 @ecdsa_signverify_init(ptr noundef %0, ptr noundef %1, ptr noundef readonly captures(none) %2, ptr noundef %3, i32 noundef range(i32 16, 32769) %4) unnamed_addr #0 {
  %6 = tail call i32 @ossl_prov_is_running() #8
  %7 = icmp eq i32 %6, 0
  %8 = icmp eq ptr %0, null
  %or.cond = or i1 %8, %7
  br i1 %or.cond, label %23, label %9

9:                                                ; preds = %5
  %cond = icmp eq ptr %1, null
  br i1 %cond, label %10, label %15

10:                                               ; preds = %9
  %11 = getelementptr inbounds nuw i8, ptr %0, i64 16
  %12 = load ptr, ptr %11, align 8, !tbaa !19
  %13 = icmp eq ptr %12, null
  br i1 %13, label %14, label %20

14:                                               ; preds = %10
  tail call void @ERR_new() #8
  tail call void @ERR_set_debug(ptr noundef nonnull @.str, i32 noundef 273, ptr noundef nonnull @__func__.ecdsa_signverify_init) #8
  tail call void (i32, i32, ptr, ...) @ERR_set_error(i32 noundef 57, i32 noundef 114, ptr noundef null) #8
  br label %23

15:                                               ; preds = %9
  %16 = tail call i32 @EC_KEY_up_ref(ptr noundef nonnull %1) #8
  %.not16 = icmp eq i32 %16, 0
  br i1 %.not16, label %23, label %17

17:                                               ; preds = %15
  %18 = getelementptr inbounds nuw i8, ptr %0, i64 16
  %19 = load ptr, ptr %18, align 8, !tbaa !19
  tail call void @EC_KEY_free(ptr noundef %19) #8
  store ptr %1, ptr %18, align 8, !tbaa !19
  br label %20

20:                                               ; preds = %10, %17
  %21 = getelementptr inbounds nuw i8, ptr %0, i64 24
  store i32 %4, ptr %21, align 8, !tbaa !17
  %22 = tail call i32 %2(ptr noundef nonnull %0, ptr noundef %3) #8, !callees !42
  %.not17 = icmp ne i32 %22, 0
  %. = zext i1 %.not17 to i32
  br label %23

23:                                               ; preds = %20, %15, %5, %14
  %.0 = phi i32 [ 0, %14 ], [ 0, %5 ], [ 0, %15 ], [ %., %20 ]
  ret i32 %.0
}